; ModuleID = 'qubit.9be0c3e8-cgu.0'
source_filename = "qubit.9be0c3e8-cgu.0"
target datalayout = "e-m:w-p270:32:32-p271:32:32-p272:64:64-i64:64-f80:128-n8:16:32:64-S128"
target triple = "x86_64-pc-windows-msvc"

%"core::fmt::Formatter" = type { { i64, i64 }, { i64, i64 }, { {}*, [3 x i64]* }, i32, i32, i8, [7 x i8] }
%"core::fmt::Opaque" = type {}
%"core::fmt::Arguments" = type { { [0 x { [0 x i8]*, i64 }]*, i64 }, { i64*, i64 }, { [0 x { i8*, i64* }]*, i64 } }
%"core::panic::location::Location" = type { { [0 x i8]*, i64 }, i32, i32 }

@vtable.0 = private unnamed_addr constant <{ i8*, [16 x i8], i8*, i8*, i8* }> <{ i8* bitcast (void (i64**)* @"_ZN4core3ptr85drop_in_place$LT$std..rt..lang_start$LT$$LP$$RP$$GT$..$u7b$$u7b$closure$u7d$$u7d$$GT$17h8e979f09b9144099E" to i8*), [16 x i8] c"\08\00\00\00\00\00\00\00\08\00\00\00\00\00\00\00", i8* bitcast (i32 (i64**)* @"_ZN4core3ops8function6FnOnce40call_once$u7b$$u7b$vtable.shim$u7d$$u7d$17h6918c8d7e056f159E" to i8*), i8* bitcast (i32 (i64**)* @"_ZN3std2rt10lang_start28_$u7b$$u7b$closure$u7d$$u7d$17h71a14a2d5c9ac257E" to i8*), i8* bitcast (i32 (i64**)* @"_ZN3std2rt10lang_start28_$u7b$$u7b$closure$u7d$$u7d$17h71a14a2d5c9ac257E" to i8*) }>, align 8
@alloc20 = private unnamed_addr constant <{ [12 x i8] }> <{ [12 x i8] c"invalid args" }>, align 1
@alloc21 = private unnamed_addr constant <{ i8*, [8 x i8] }> <{ i8* getelementptr inbounds (<{ [12 x i8] }>, <{ [12 x i8] }>* @alloc20, i32 0, i32 0, i32 0), [8 x i8] c"\0C\00\00\00\00\00\00\00" }>, align 8
@alloc23 = private unnamed_addr constant <{}> zeroinitializer, align 8
@alloc34 = private unnamed_addr constant <{ [75 x i8] }> <{ [75 x i8] c"/rustc/ca122c7ebb3ab50149c9d3d24ddb59c252b32272\\library\\core\\src\\fmt\\mod.rs" }>, align 1
@alloc35 = private unnamed_addr constant <{ i8*, [16 x i8] }> <{ i8* getelementptr inbounds (<{ [75 x i8] }>, <{ [75 x i8] }>* @alloc34, i32 0, i32 0, i32 0), [16 x i8] c"K\00\00\00\00\00\00\00\86\01\00\00\0D\00\00\00" }>, align 8
@alloc3 = private unnamed_addr constant <{ [11 x i8] }> <{ [11 x i8] c"  Spin Up: " }>, align 1
@alloc9 = private unnamed_addr constant <{ [1 x i8] }> <{ [1 x i8] c"\0A" }>, align 1
@alloc4 = private unnamed_addr constant <{ i8*, [8 x i8], i8*, [8 x i8] }> <{ i8* getelementptr inbounds (<{ [11 x i8] }>, <{ [11 x i8] }>* @alloc3, i32 0, i32 0, i32 0), [8 x i8] c"\0B\00\00\00\00\00\00\00", i8* getelementptr inbounds (<{ [1 x i8] }>, <{ [1 x i8] }>* @alloc9, i32 0, i32 0, i32 0), [8 x i8] c"\01\00\00\00\00\00\00\00" }>, align 8
@alloc7 = private unnamed_addr constant <{ [11 x i8] }> <{ [11 x i8] c"Spin Down: " }>, align 1
@alloc8 = private unnamed_addr constant <{ i8*, [8 x i8], i8*, [8 x i8] }> <{ i8* getelementptr inbounds (<{ [11 x i8] }>, <{ [11 x i8] }>* @alloc7, i32 0, i32 0, i32 0), [8 x i8] c"\0B\00\00\00\00\00\00\00", i8* getelementptr inbounds (<{ [1 x i8] }>, <{ [1 x i8] }>* @alloc9, i32 0, i32 0, i32 0), [8 x i8] c"\01\00\00\00\00\00\00\00" }>, align 8

; std::sys_common::backtrace::__rust_begin_short_backtrace
; Function Attrs: noinline uwtable
define internal void @_ZN3std10sys_common9backtrace28__rust_begin_short_backtrace17h332ffa3b5e3f21f0E(void ()* %f) unnamed_addr #0 personality i32 (...)* @__CxxFrameHandler3 {
start:
; call core::ops::function::FnOnce::call_once
  call void @_ZN4core3ops8function6FnOnce9call_once17h2c827a72f4df4b66E(void ()* %f)
  br label %bb1

bb1:                                              ; preds = %start
; invoke core::hint::black_box
  invoke void @_ZN4core4hint9black_box17hac27cc71a0c5ff3dE()
          to label %bb2 unwind label %funclet_bb3

bb3:                                              ; preds = %funclet_bb3
  br label %bb4

funclet_bb3:                                      ; preds = %bb1
  %cleanuppad = cleanuppad within none []
  br label %bb3

bb2:                                              ; preds = %bb1
  ret void

bb4:                                              ; preds = %bb3
  cleanupret from %cleanuppad unwind to caller
}

; std::rt::lang_start
; Function Attrs: uwtable
define hidden i64 @_ZN3std2rt10lang_start17h12e7ac4eb8d5b5a8E(void ()* %main, i64 %argc, i8** %argv) unnamed_addr #1 {
start:
  %_8 = alloca i64*, align 8
  %_4 = alloca i64, align 8
  %0 = bitcast i64** %_8 to void ()**
  store void ()* %main, void ()** %0, align 8
  %_5.0 = bitcast i64** %_8 to {}*
; call std::rt::lang_start_internal
  %1 = call i64 @_ZN3std2rt19lang_start_internal17hc5cca4f3886d7720E({}* align 1 %_5.0, [3 x i64]* align 8 bitcast (<{ i8*, [16 x i8], i8*, i8*, i8* }>* @vtable.0 to [3 x i64]*), i64 %argc, i8** %argv)
  store i64 %1, i64* %_4, align 8
  br label %bb1

bb1:                                              ; preds = %start
  %v = load i64, i64* %_4, align 8
  ret i64 %v
}

; std::rt::lang_start::{{closure}}
; Function Attrs: inlinehint uwtable
define internal i32 @"_ZN3std2rt10lang_start28_$u7b$$u7b$closure$u7d$$u7d$17h71a14a2d5c9ac257E"(i64** align 8 %_1) unnamed_addr #2 {
start:
  %0 = bitcast i64** %_1 to void ()**
  %_4 = load void ()*, void ()** %0, align 8, !nonnull !2, !noundef !2
; call std::sys_common::backtrace::__rust_begin_short_backtrace
  call void @_ZN3std10sys_common9backtrace28__rust_begin_short_backtrace17h332ffa3b5e3f21f0E(void ()* %_4)
  br label %bb1

bb1:                                              ; preds = %start
; call <() as std::process::Termination>::report
  %_2 = call i32 @"_ZN54_$LT$$LP$$RP$$u20$as$u20$std..process..Termination$GT$6report17hefe887d28cb950b2E"()
  br label %bb2

bb2:                                              ; preds = %bb1
; call std::process::ExitCode::to_i32
  %1 = call i32 @_ZN3std7process8ExitCode6to_i3217hf0a1c51a20b599ccE(i32 %_2)
  br label %bb3

bb3:                                              ; preds = %bb2
  ret i32 %1
}

; std::sys::windows::process::ExitCode::as_i32
; Function Attrs: inlinehint uwtable
define internal i32 @_ZN3std3sys7windows7process8ExitCode6as_i3217h7c3c141353203072E(i32* align 4 %self) unnamed_addr #2 {
start:
  %_2 = load i32, i32* %self, align 4
  ret i32 %_2
}

; std::process::ExitCode::to_i32
; Function Attrs: inlinehint uwtable
define internal i32 @_ZN3std7process8ExitCode6to_i3217hf0a1c51a20b599ccE(i32 %0) unnamed_addr #2 {
start:
  %self = alloca i32, align 4
  store i32 %0, i32* %self, align 4
; call std::sys::windows::process::ExitCode::as_i32
  %1 = call i32 @_ZN3std3sys7windows7process8ExitCode6as_i3217h7c3c141353203072E(i32* align 4 %self)
  br label %bb1

bb1:                                              ; preds = %start
  ret i32 %1
}

; core::fmt::ArgumentV1::new_display
; Function Attrs: inlinehint uwtable
define internal { i8*, i64* } @_ZN4core3fmt10ArgumentV111new_display17hf61862172e972bfaE(i64* align 8 %x) unnamed_addr #2 {
start:
; call core::fmt::ArgumentV1::new
  %0 = call { i8*, i64* } @_ZN4core3fmt10ArgumentV13new17he229035fe3b2bfe6E(i64* align 8 %x, i1 (i64*, %"core::fmt::Formatter"*)* @"_ZN4core3fmt3num3imp52_$LT$impl$u20$core..fmt..Display$u20$for$u20$i64$GT$3fmt17h5e47baee7bd2659fE")
  %1 = extractvalue { i8*, i64* } %0, 0
  %2 = extractvalue { i8*, i64* } %0, 1
  br label %bb1

bb1:                                              ; preds = %start
  %3 = insertvalue { i8*, i64* } undef, i8* %1, 0
  %4 = insertvalue { i8*, i64* } %3, i64* %2, 1
  ret { i8*, i64* } %4
}

; core::fmt::ArgumentV1::new
; Function Attrs: inlinehint uwtable
define internal { i8*, i64* } @_ZN4core3fmt10ArgumentV13new17he229035fe3b2bfe6E(i64* align 8 %x, i1 (i64*, %"core::fmt::Formatter"*)* %f) unnamed_addr #2 {
start:
  %0 = alloca %"core::fmt::Opaque"*, align 8
  %1 = alloca i1 (%"core::fmt::Opaque"*, %"core::fmt::Formatter"*)*, align 8
  %2 = alloca { i8*, i64* }, align 8
  %3 = bitcast i1 (i64*, %"core::fmt::Formatter"*)* %f to i1 (%"core::fmt::Opaque"*, %"core::fmt::Formatter"*)*
  store i1 (%"core::fmt::Opaque"*, %"core::fmt::Formatter"*)* %3, i1 (%"core::fmt::Opaque"*, %"core::fmt::Formatter"*)** %1, align 8
  %_3 = load i1 (%"core::fmt::Opaque"*, %"core::fmt::Formatter"*)*, i1 (%"core::fmt::Opaque"*, %"core::fmt::Formatter"*)** %1, align 8, !nonnull !2, !noundef !2
  br label %bb1

bb1:                                              ; preds = %start
  %4 = bitcast i64* %x to %"core::fmt::Opaque"*
  store %"core::fmt::Opaque"* %4, %"core::fmt::Opaque"** %0, align 8
  %_5 = load %"core::fmt::Opaque"*, %"core::fmt::Opaque"** %0, align 8, !nonnull !2, !align !3, !noundef !2
  br label %bb2

bb2:                                              ; preds = %bb1
  %5 = bitcast { i8*, i64* }* %2 to %"core::fmt::Opaque"**
  store %"core::fmt::Opaque"* %_5, %"core::fmt::Opaque"** %5, align 8
  %6 = getelementptr inbounds { i8*, i64* }, { i8*, i64* }* %2, i32 0, i32 1
  %7 = bitcast i64** %6 to i1 (%"core::fmt::Opaque"*, %"core::fmt::Formatter"*)**
  store i1 (%"core::fmt::Opaque"*, %"core::fmt::Formatter"*)* %_3, i1 (%"core::fmt::Opaque"*, %"core::fmt::Formatter"*)** %7, align 8
  %8 = getelementptr inbounds { i8*, i64* }, { i8*, i64* }* %2, i32 0, i32 0
  %9 = load i8*, i8** %8, align 8, !nonnull !2, !align !3, !noundef !2
  %10 = getelementptr inbounds { i8*, i64* }, { i8*, i64* }* %2, i32 0, i32 1
  %11 = load i64*, i64** %10, align 8, !nonnull !2, !noundef !2
  %12 = insertvalue { i8*, i64* } undef, i8* %9, 0
  %13 = insertvalue { i8*, i64* } %12, i64* %11, 1
  ret { i8*, i64* } %13
}

; core::fmt::Arguments::new_v1
; Function Attrs: inlinehint uwtable
define internal void @_ZN4core3fmt9Arguments6new_v117hef949c400ffcbc4cE(%"core::fmt::Arguments"* sret(%"core::fmt::Arguments") %0, [0 x { [0 x i8]*, i64 }]* align 8 %pieces.0, i64 %pieces.1, [0 x { i8*, i64* }]* align 8 %args.0, i64 %args.1) unnamed_addr #2 {
start:
  %_24 = alloca { i64*, i64 }, align 8
  %_16 = alloca %"core::fmt::Arguments", align 8
  %_3 = alloca i8, align 1
  %_4 = icmp ult i64 %pieces.1, %args.1
  br i1 %_4, label %bb1, label %bb2

bb2:                                              ; preds = %start
  %_12 = add i64 %args.1, 1
  %_9 = icmp ugt i64 %pieces.1, %_12
  %1 = zext i1 %_9 to i8
  store i8 %1, i8* %_3, align 1
  br label %bb3

bb1:                                              ; preds = %start
  store i8 1, i8* %_3, align 1
  br label %bb3

bb3:                                              ; preds = %bb2, %bb1
  %2 = load i8, i8* %_3, align 1, !range !4, !noundef !2
  %3 = trunc i8 %2 to i1
  br i1 %3, label %bb4, label %bb6

bb6:                                              ; preds = %bb3
  %4 = bitcast { i64*, i64 }* %_24 to {}**
  store {}* null, {}** %4, align 8
  %5 = bitcast %"core::fmt::Arguments"* %0 to { [0 x { [0 x i8]*, i64 }]*, i64 }*
  %6 = getelementptr inbounds { [0 x { [0 x i8]*, i64 }]*, i64 }, { [0 x { [0 x i8]*, i64 }]*, i64 }* %5, i32 0, i32 0
  store [0 x { [0 x i8]*, i64 }]* %pieces.0, [0 x { [0 x i8]*, i64 }]** %6, align 8
  %7 = getelementptr inbounds { [0 x { [0 x i8]*, i64 }]*, i64 }, { [0 x { [0 x i8]*, i64 }]*, i64 }* %5, i32 0, i32 1
  store i64 %pieces.1, i64* %7, align 8
  %8 = getelementptr inbounds %"core::fmt::Arguments", %"core::fmt::Arguments"* %0, i32 0, i32 1
  %9 = getelementptr inbounds { i64*, i64 }, { i64*, i64 }* %_24, i32 0, i32 0
  %10 = load i64*, i64** %9, align 8, !align !5
  %11 = getelementptr inbounds { i64*, i64 }, { i64*, i64 }* %_24, i32 0, i32 1
  %12 = load i64, i64* %11, align 8
  %13 = getelementptr inbounds { i64*, i64 }, { i64*, i64 }* %8, i32 0, i32 0
  store i64* %10, i64** %13, align 8
  %14 = getelementptr inbounds { i64*, i64 }, { i64*, i64 }* %8, i32 0, i32 1
  store i64 %12, i64* %14, align 8
  %15 = getelementptr inbounds %"core::fmt::Arguments", %"core::fmt::Arguments"* %0, i32 0, i32 2
  %16 = getelementptr inbounds { [0 x { i8*, i64* }]*, i64 }, { [0 x { i8*, i64* }]*, i64 }* %15, i32 0, i32 0
  store [0 x { i8*, i64* }]* %args.0, [0 x { i8*, i64* }]** %16, align 8
  %17 = getelementptr inbounds { [0 x { i8*, i64* }]*, i64 }, { [0 x { i8*, i64* }]*, i64 }* %15, i32 0, i32 1
  store i64 %args.1, i64* %17, align 8
  ret void

bb4:                                              ; preds = %bb3
; call core::fmt::Arguments::new_v1
  call void @_ZN4core3fmt9Arguments6new_v117hef949c400ffcbc4cE(%"core::fmt::Arguments"* sret(%"core::fmt::Arguments") %_16, [0 x { [0 x i8]*, i64 }]* align 8 bitcast (<{ i8*, [8 x i8] }>* @alloc21 to [0 x { [0 x i8]*, i64 }]*), i64 1, [0 x { i8*, i64* }]* align 8 bitcast (<{}>* @alloc23 to [0 x { i8*, i64* }]*), i64 0)
  br label %bb5

bb5:                                              ; preds = %bb4
; call core::panicking::panic_fmt
  call void @_ZN4core9panicking9panic_fmt17h5b31e05c28ee32f2E(%"core::fmt::Arguments"* %_16, %"core::panic::location::Location"* align 8 bitcast (<{ i8*, [16 x i8] }>* @alloc35 to %"core::panic::location::Location"*)) #5
  unreachable
}

; core::ops::function::FnOnce::call_once{{vtable.shim}}
; Function Attrs: inlinehint uwtable
define internal i32 @"_ZN4core3ops8function6FnOnce40call_once$u7b$$u7b$vtable.shim$u7d$$u7d$17h6918c8d7e056f159E"(i64** %_1) unnamed_addr #2 {
start:
  %_2 = alloca {}, align 1
  %0 = load i64*, i64** %_1, align 8, !nonnull !2, !noundef !2
; call core::ops::function::FnOnce::call_once
  %1 = call i32 @_ZN4core3ops8function6FnOnce9call_once17h3ed8f40e0455f3e9E(i64* %0)
  br label %bb1

bb1:                                              ; preds = %start
  ret i32 %1
}

; core::ops::function::FnOnce::call_once
; Function Attrs: inlinehint uwtable
define internal void @_ZN4core3ops8function6FnOnce9call_once17h2c827a72f4df4b66E(void ()* %_1) unnamed_addr #2 {
start:
  %_2 = alloca {}, align 1
  call void %_1()
  br label %bb1

bb1:                                              ; preds = %start
  ret void
}

; core::ops::function::FnOnce::call_once
; Function Attrs: inlinehint uwtable
define internal i32 @_ZN4core3ops8function6FnOnce9call_once17h3ed8f40e0455f3e9E(i64* %0) unnamed_addr #2 personality i32 (...)* @__CxxFrameHandler3 {
start:
  %_2 = alloca {}, align 1
  %_1 = alloca i64*, align 8
  store i64* %0, i64** %_1, align 8
; invoke std::rt::lang_start::{{closure}}
  %1 = invoke i32 @"_ZN3std2rt10lang_start28_$u7b$$u7b$closure$u7d$$u7d$17h71a14a2d5c9ac257E"(i64** align 8 %_1)
          to label %bb1 unwind label %funclet_bb3

bb3:                                              ; preds = %funclet_bb3
  br label %bb4

funclet_bb3:                                      ; preds = %start
  %cleanuppad = cleanuppad within none []
  br label %bb3

bb1:                                              ; preds = %start
  br label %bb2

bb4:                                              ; preds = %bb3
  cleanupret from %cleanuppad unwind to caller

bb2:                                              ; preds = %bb1
  ret i32 %1
}

; core::ptr::drop_in_place<std::rt::lang_start<()>::{{closure}}>
; Function Attrs: inlinehint uwtable
define internal void @"_ZN4core3ptr85drop_in_place$LT$std..rt..lang_start$LT$$LP$$RP$$GT$..$u7b$$u7b$closure$u7d$$u7d$$GT$17h8e979f09b9144099E"(i64** %_1) unnamed_addr #2 {
start:
  ret void
}

; core::hint::black_box
; Function Attrs: inlinehint uwtable
define internal void @_ZN4core4hint9black_box17hac27cc71a0c5ff3dE() unnamed_addr #2 {
start:
  call void asm sideeffect "", "r,~{memory}"({}* undef), !srcloc !6
  br label %bb1

bb1:                                              ; preds = %start
  ret void
}

; <() as std::process::Termination>::report
; Function Attrs: inlinehint uwtable
define internal i32 @"_ZN54_$LT$$LP$$RP$$u20$as$u20$std..process..Termination$GT$6report17hefe887d28cb950b2E"() unnamed_addr #2 {
start:
  ret i32 0
}

; qubit::main
; Function Attrs: uwtable
define internal void @_ZN5qubit4main17h9c3cdd1b265f2c66E() unnamed_addr #1 {
start:
  %_24 = alloca [1 x { i8*, i64* }], align 8
  %_17 = alloca %"core::fmt::Arguments", align 8
  %_12 = alloca [1 x { i8*, i64* }], align 8
  %_5 = alloca %"core::fmt::Arguments", align 8
  %_q1 = alloca { i64, i64 }, align 8
; call qubit::Qubit::new
  %0 = call { i64, i64 } @_ZN5qubit5Qubit3new17h5a8e26b739e952fcE(i64 1, i64 0)
  store { i64, i64 } %0, { i64, i64 }* %_q1, align 8
  br label %bb1

bb1:                                              ; preds = %start
; call qubit::Qubit::X
  call void @_ZN5qubit5Qubit1X17hb5bef64101574facE({ i64, i64 }* align 8 %_q1)
  br label %bb2

bb2:                                              ; preds = %bb1
  %_15 = bitcast { i64, i64 }* %_q1 to i64*
; call core::fmt::ArgumentV1::new_display
  %1 = call { i8*, i64* } @_ZN4core3fmt10ArgumentV111new_display17hf61862172e972bfaE(i64* align 8 %_15)
  %_13.0 = extractvalue { i8*, i64* } %1, 0
  %_13.1 = extractvalue { i8*, i64* } %1, 1
  br label %bb3

bb3:                                              ; preds = %bb2
  %2 = bitcast [1 x { i8*, i64* }]* %_12 to { i8*, i64* }*
  %3 = getelementptr inbounds { i8*, i64* }, { i8*, i64* }* %2, i32 0, i32 0
  store i8* %_13.0, i8** %3, align 8
  %4 = getelementptr inbounds { i8*, i64* }, { i8*, i64* }* %2, i32 0, i32 1
  store i64* %_13.1, i64** %4, align 8
  %_9.0 = bitcast [1 x { i8*, i64* }]* %_12 to [0 x { i8*, i64* }]*
; call core::fmt::Arguments::new_v1
  call void @_ZN4core3fmt9Arguments6new_v117hef949c400ffcbc4cE(%"core::fmt::Arguments"* sret(%"core::fmt::Arguments") %_5, [0 x { [0 x i8]*, i64 }]* align 8 bitcast (<{ i8*, [8 x i8], i8*, [8 x i8] }>* @alloc4 to [0 x { [0 x i8]*, i64 }]*), i64 2, [0 x { i8*, i64* }]* align 8 %_9.0, i64 1)
  br label %bb4

bb4:                                              ; preds = %bb3
; call std::io::stdio::_print
  call void @_ZN3std2io5stdio6_print17h9ade4a15b9e3c1c8E(%"core::fmt::Arguments"* %_5)
  br label %bb5

bb5:                                              ; preds = %bb4
  %_27 = getelementptr inbounds { i64, i64 }, { i64, i64 }* %_q1, i32 0, i32 1
; call core::fmt::ArgumentV1::new_display
  %5 = call { i8*, i64* } @_ZN4core3fmt10ArgumentV111new_display17hf61862172e972bfaE(i64* align 8 %_27)
  %_25.0 = extractvalue { i8*, i64* } %5, 0
  %_25.1 = extractvalue { i8*, i64* } %5, 1
  br label %bb6

bb6:                                              ; preds = %bb5
  %6 = bitcast [1 x { i8*, i64* }]* %_24 to { i8*, i64* }*
  %7 = getelementptr inbounds { i8*, i64* }, { i8*, i64* }* %6, i32 0, i32 0
  store i8* %_25.0, i8** %7, align 8
  %8 = getelementptr inbounds { i8*, i64* }, { i8*, i64* }* %6, i32 0, i32 1
  store i64* %_25.1, i64** %8, align 8
  %_21.0 = bitcast [1 x { i8*, i64* }]* %_24 to [0 x { i8*, i64* }]*
; call core::fmt::Arguments::new_v1
  call void @_ZN4core3fmt9Arguments6new_v117hef949c400ffcbc4cE(%"core::fmt::Arguments"* sret(%"core::fmt::Arguments") %_17, [0 x { [0 x i8]*, i64 }]* align 8 bitcast (<{ i8*, [8 x i8], i8*, [8 x i8] }>* @alloc8 to [0 x { [0 x i8]*, i64 }]*), i64 2, [0 x { i8*, i64* }]* align 8 %_21.0, i64 1)
  br label %bb7

bb7:                                              ; preds = %bb6
; call std::io::stdio::_print
  call void @_ZN3std2io5stdio6_print17h9ade4a15b9e3c1c8E(%"core::fmt::Arguments"* %_17)
  br label %bb8

bb8:                                              ; preds = %bb7
  ret void
}

; qubit::Qubit::new
; Function Attrs: uwtable
define internal { i64, i64 } @_ZN5qubit5Qubit3new17h5a8e26b739e952fcE(i64 %up, i64 %down) unnamed_addr #1 {
start:
  %0 = alloca { i64, i64 }, align 8
  %1 = bitcast { i64, i64 }* %0 to i64*
  store i64 %up, i64* %1, align 8
  %2 = getelementptr inbounds { i64, i64 }, { i64, i64 }* %0, i32 0, i32 1
  store i64 %down, i64* %2, align 8
  %3 = getelementptr inbounds { i64, i64 }, { i64, i64 }* %0, i32 0, i32 0
  %4 = load i64, i64* %3, align 8
  %5 = getelementptr inbounds { i64, i64 }, { i64, i64 }* %0, i32 0, i32 1
  %6 = load i64, i64* %5, align 8
  %7 = insertvalue { i64, i64 } undef, i64 %4, 0
  %8 = insertvalue { i64, i64 } %7, i64 %6, 1
  ret { i64, i64 } %8
}

; qubit::Qubit::X
; Function Attrs: uwtable
define internal void @_ZN5qubit5Qubit1X17hb5bef64101574facE({ i64, i64 }* align 8 %self) unnamed_addr #1 {
start:
  %0 = bitcast { i64, i64 }* %self to i64*
  %temp = load i64, i64* %0, align 8
  %1 = getelementptr inbounds { i64, i64 }, { i64, i64 }* %self, i32 0, i32 1
  %_3 = load i64, i64* %1, align 8
  %2 = bitcast { i64, i64 }* %self to i64*
  store i64 %_3, i64* %2, align 8
  %3 = getelementptr inbounds { i64, i64 }, { i64, i64 }* %self, i32 0, i32 1
  store i64 %temp, i64* %3, align 8
  ret void
}

declare i32 @__CxxFrameHandler3(...) unnamed_addr #3

; std::rt::lang_start_internal
; Function Attrs: uwtable
declare i64 @_ZN3std2rt19lang_start_internal17hc5cca4f3886d7720E({}* align 1, [3 x i64]* align 8, i64, i8**) unnamed_addr #1

; core::fmt::num::imp::<impl core::fmt::Display for i64>::fmt
; Function Attrs: uwtable
declare zeroext i1 @"_ZN4core3fmt3num3imp52_$LT$impl$u20$core..fmt..Display$u20$for$u20$i64$GT$3fmt17h5e47baee7bd2659fE"(i64* align 8, %"core::fmt::Formatter"* align 8) unnamed_addr #1

; core::panicking::panic_fmt
; Function Attrs: cold noinline noreturn uwtable
declare void @_ZN4core9panicking9panic_fmt17h5b31e05c28ee32f2E(%"core::fmt::Arguments"*, %"core::panic::location::Location"* align 8) unnamed_addr #4

; std::io::stdio::_print
; Function Attrs: uwtable
declare void @_ZN3std2io5stdio6_print17h9ade4a15b9e3c1c8E(%"core::fmt::Arguments"*) unnamed_addr #1

define i32 @main(i32 %0, i8** %1) unnamed_addr #3 {
top:
  %2 = sext i32 %0 to i64
; call std::rt::lang_start
  %3 = call i64 @_ZN3std2rt10lang_start17h12e7ac4eb8d5b5a8E(void ()* @_ZN5qubit4main17h9c3cdd1b265f2c66E, i64 %2, i8** %1)
  %4 = trunc i64 %3 to i32
  ret i32 %4
}

attributes #0 = { noinline uwtable "target-cpu"="x86-64" }
attributes #1 = { uwtable "target-cpu"="x86-64" }
attributes #2 = { inlinehint uwtable "target-cpu"="x86-64" }
attributes #3 = { "target-cpu"="x86-64" }
attributes #4 = { cold noinline noreturn uwtable "target-cpu"="x86-64" }
attributes #5 = { noreturn }

!llvm.module.flags = !{!0, !1}

!0 = !{i32 7, !"PIC Level", i32 2}
!1 = !{i32 7, !"PIE Level", i32 2}
!2 = !{}
!3 = !{i64 1}
!4 = !{i8 0, i8 2}
!5 = !{i64 8}
!6 = !{i32 3227822}
